; Function Attrs: mustprogress nofree norecurse nosync nounwind willreturn memory(read, inaccessiblemem: none) uwtable
define noundef zeroext i1 @_ZNK7testing8internal8FilePath15IsRootDirectoryEv(ptr noundef nonnull readonly align 8 captures(none) dereferenceable(32) %0) local_unnamed_addr #25 align 2 {
  %2 = getelementptr inbounds nuw i8, ptr %0, i64 8
  %3 = load i64, ptr %2, align 8, !tbaa !25
  %4 = icmp eq i64 %3, 1
  br i1 %4, label %5, label %9

5:                                                ; preds = %1
  %6 = load ptr, ptr %0, align 8, !tbaa !22
  %7 = load i8, ptr %6, align 1, !tbaa !27
  %8 = icmp eq i8 %7, 47
  br label %9

9:                                                ; preds = %5, %1
  %10 = phi i1 [ false, %1 ], [ %8, %5 ]
  ret i1 %10
}